target datalayout = "e-m:e-p270:32:32-p271:32:32-p272:64:64-i64:64-i128:128-f80:128-n8:16:32:64-S128"
target triple = "x86_64-pc-linux-gnu"

%struct._zgfx_context_t = type { [2500000 x i8], i32, i32, i32, [65536 x i8] }

; Function Attrs: nounwind null_pointer_is_valid sspstrong uwtable
define internal void @zgfx_write_history_buffer(ptr noundef %0, ptr noundef %1, i32 noundef %2) #5 {
  %4 = alloca ptr, align 8
  %5 = alloca ptr, align 8
  %6 = alloca i32, align 4
  %7 = alloca i32, align 4
  %8 = alloca i32, align 4
  store ptr %0, ptr %4, align 8
  store ptr %1, ptr %5, align 8
  store i32 %2, ptr %6, align 4
  call void @llvm.lifetime.start.p0(i64 4, ptr %7) #8
  %9 = load i32, ptr %6, align 4
  %10 = load ptr, ptr %4, align 8
  %11 = getelementptr inbounds nuw %struct._zgfx_context_t, ptr %10, i32 0, i32 2
  %12 = load i32, ptr %11, align 4
  %13 = icmp ugt i32 %9, %12
  br i1 %13, label %14, label %34

14:                                               ; preds = %3
  call void @llvm.lifetime.start.p0(i64 4, ptr %8) #8
  %15 = load i32, ptr %6, align 4
  %16 = load ptr, ptr %4, align 8
  %17 = getelementptr inbounds nuw %struct._zgfx_context_t, ptr %16, i32 0, i32 2
  %18 = load i32, ptr %17, align 4
  %19 = sub i32 %15, %18
  store i32 %19, ptr %8, align 4
  %20 = load ptr, ptr %4, align 8
  %21 = getelementptr inbounds nuw %struct._zgfx_context_t, ptr %20, i32 0, i32 2
  %22 = load i32, ptr %21, align 4
  store i32 %22, ptr %6, align 4
  %23 = load ptr, ptr %4, align 8
  %24 = getelementptr inbounds nuw %struct._zgfx_context_t, ptr %23, i32 0, i32 1
  %25 = load i32, ptr %24, align 4
  %26 = load i32, ptr %8, align 4
  %27 = add i32 %25, %26
  %28 = load ptr, ptr %4, align 8
  %29 = getelementptr inbounds nuw %struct._zgfx_context_t, ptr %28, i32 0, i32 2
  %30 = load i32, ptr %29, align 4
  %31 = urem i32 %27, %30
  %32 = load ptr, ptr %4, align 8
  %33 = getelementptr inbounds nuw %struct._zgfx_context_t, ptr %32, i32 0, i32 1
  store i32 %31, ptr %33, align 4
  call void @llvm.lifetime.end.p0(i64 4, ptr %8) #8
  br label %34

34:                                               ; preds = %14, %3
  %35 = load ptr, ptr %4, align 8
  %36 = getelementptr inbounds nuw %struct._zgfx_context_t, ptr %35, i32 0, i32 1
  %37 = load i32, ptr %36, align 4
  %38 = load i32, ptr %6, align 4
  %39 = add i32 %37, %38
  %40 = load ptr, ptr %4, align 8
  %41 = getelementptr inbounds nuw %struct._zgfx_context_t, ptr %40, i32 0, i32 2
  %42 = load i32, ptr %41, align 4
  %43 = icmp ule i32 %39, %42
  br i1 %43, label %44, label %56

44:                                               ; preds = %34
  %45 = load ptr, ptr %4, align 8
  %46 = getelementptr inbounds nuw %struct._zgfx_context_t, ptr %45, i32 0, i32 0
  %47 = load ptr, ptr %4, align 8
  %48 = getelementptr inbounds nuw %struct._zgfx_context_t, ptr %47, i32 0, i32 1
  %49 = load i32, ptr %48, align 4
  %50 = zext i32 %49 to i64
  %51 = getelementptr [2500000 x i8], ptr %46, i64 0, i64 %50
  %52 = load ptr, ptr %5, align 8
  %53 = load i32, ptr %6, align 4
  %54 = zext i32 %53 to i64
  %55 = call ptr @memcpy.inline(ptr noundef %51, ptr noundef %52, i64 noundef %54) #8
  br label %86

56:                                               ; preds = %34
  %57 = load ptr, ptr %4, align 8
  %58 = getelementptr inbounds nuw %struct._zgfx_context_t, ptr %57, i32 0, i32 2
  %59 = load i32, ptr %58, align 4
  %60 = load ptr, ptr %4, align 8
  %61 = getelementptr inbounds nuw %struct._zgfx_context_t, ptr %60, i32 0, i32 1
  %62 = load i32, ptr %61, align 4
  %63 = sub i32 %59, %62
  store i32 %63, ptr %7, align 4
  %64 = load ptr, ptr %4, align 8
  %65 = getelementptr inbounds nuw %struct._zgfx_context_t, ptr %64, i32 0, i32 0
  %66 = load ptr, ptr %4, align 8
  %67 = getelementptr inbounds nuw %struct._zgfx_context_t, ptr %66, i32 0, i32 1
  %68 = load i32, ptr %67, align 4
  %69 = zext i32 %68 to i64
  %70 = getelementptr [2500000 x i8], ptr %65, i64 0, i64 %69
  %71 = load ptr, ptr %5, align 8
  %72 = load i32, ptr %7, align 4
  %73 = zext i32 %72 to i64
  %74 = call ptr @memcpy.inline(ptr noundef %70, ptr noundef %71, i64 noundef %73) #8
  %75 = load ptr, ptr %4, align 8
  %76 = getelementptr inbounds nuw %struct._zgfx_context_t, ptr %75, i32 0, i32 0
  %77 = load ptr, ptr %5, align 8
  %78 = load i32, ptr %7, align 4
  %79 = zext i32 %78 to i64
  %80 = getelementptr i8, ptr %77, i64 %79
  %81 = load i32, ptr %6, align 4
  %82 = load i32, ptr %7, align 4
  %83 = sub i32 %81, %82
  %84 = zext i32 %83 to i64
  %85 = call ptr @memcpy.inline(ptr noundef %76, ptr noundef %80, i64 noundef %84) #8
  br label %86

86:                                               ; preds = %56, %44
  %87 = load ptr, ptr %4, align 8
  %88 = getelementptr inbounds nuw %struct._zgfx_context_t, ptr %87, i32 0, i32 1
  %89 = load i32, ptr %88, align 4
  %90 = load i32, ptr %6, align 4
  %91 = add i32 %89, %90
  %92 = load ptr, ptr %4, align 8
  %93 = getelementptr inbounds nuw %struct._zgfx_context_t, ptr %92, i32 0, i32 2
  %94 = load i32, ptr %93, align 4
  %95 = urem i32 %91, %94
  %96 = load ptr, ptr %4, align 8
  %97 = getelementptr inbounds nuw %struct._zgfx_context_t, ptr %96, i32 0, i32 1
  store i32 %95, ptr %97, align 4
  call void @llvm.lifetime.end.p0(i64 4, ptr %7) #8
  ret void
}

; Function Attrs: alwaysinline nounwind
define internal ptr @memcpy.inline(ptr noalias %0, ptr noalias %1, i64 %2) #4 {
  %4 = alloca ptr, align 8
  %5 = alloca ptr, align 8
  %6 = alloca i64, align 8
  store ptr %0, ptr %4, align 8
  store ptr %1, ptr %5, align 8
  store i64 %2, ptr %6, align 8
  %7 = load ptr, ptr %4, align 8
  %8 = load ptr, ptr %5, align 8
  %9 = load i64, ptr %6, align 8
  %10 = load ptr, ptr %4, align 8
  %11 = call i64 @llvm.objectsize.i64.p0(ptr %10, i1 false, i1 true, i1 true)
  %12 = call ptr @__memcpy_chk(ptr noundef %7, ptr noundef %8, i64 noundef %9, i64 noundef %11) #8
  ret ptr %12
}

; Function Attrs: null_pointer_is_valid sspstrong uwtable
define internal zeroext i1 @zgfx_write_from_history(ptr noundef %0, i32 noundef %1, i32 noundef %2) #0 {
  %4 = alloca i1, align 1
  %5 = alloca ptr, align 8
  %6 = alloca i32, align 4
  %7 = alloca i32, align 4
  %8 = alloca i32, align 4
  %9 = alloca i32, align 4
  %10 = alloca i32, align 4
  %11 = alloca i32, align 4
  %12 = alloca ptr, align 8
  %13 = alloca i32, align 4
  %14 = alloca i32, align 4
  store ptr %0, ptr %5, align 8
  store i32 %1, ptr %6, align 4
  store i32 %2, ptr %7, align 4
  call void @llvm.lifetime.start.p0(i64 4, ptr %8) #8
  call void @llvm.lifetime.start.p0(i64 4, ptr %9) #8
  call void @llvm.lifetime.start.p0(i64 4, ptr %10) #8
  call void @llvm.lifetime.start.p0(i64 4, ptr %11) #8
  call void @llvm.lifetime.start.p0(i64 8, ptr %12) #8
  %15 = load ptr, ptr %5, align 8
  %16 = getelementptr inbounds nuw %struct._zgfx_context_t, ptr %15, i32 0, i32 3
  %17 = load i32, ptr %16, align 4
  %18 = load i32, ptr %7, align 4
  %19 = sub i32 65535, %18
  %20 = icmp ugt i32 %17, %19
  br i1 %20, label %21, label %22

21:                                               ; preds = %3
  store i1 false, ptr %4, align 1
  store i32 1, ptr %13, align 4
  br label %154

22:                                               ; preds = %3
  %23 = load i32, ptr %7, align 4
  store i32 %23, ptr %9, align 4
  %24 = load ptr, ptr %5, align 8
  %25 = getelementptr inbounds nuw %struct._zgfx_context_t, ptr %24, i32 0, i32 1
  %26 = load i32, ptr %25, align 4
  %27 = load ptr, ptr %5, align 8
  %28 = getelementptr inbounds nuw %struct._zgfx_context_t, ptr %27, i32 0, i32 2
  %29 = load i32, ptr %28, align 4
  %30 = add i32 %26, %29
  %31 = load i32, ptr %6, align 4
  %32 = sub i32 %30, %31
  %33 = load ptr, ptr %5, align 8
  %34 = getelementptr inbounds nuw %struct._zgfx_context_t, ptr %33, i32 0, i32 2
  %35 = load i32, ptr %34, align 4
  %36 = urem i32 %32, %35
  store i32 %36, ptr %8, align 4
  %37 = load i32, ptr %6, align 4
  %38 = load i32, ptr %7, align 4
  %39 = icmp ugt i32 %37, %38
  br i1 %39, label %40, label %42

40:                                               ; preds = %22
  %41 = load i32, ptr %7, align 4
  br label %44

42:                                               ; preds = %22
  %43 = load i32, ptr %6, align 4
  br label %44

44:                                               ; preds = %42, %40
  %45 = phi i32 [ %41, %40 ], [ %43, %42 ]
  store i32 %45, ptr %10, align 4
  %46 = load ptr, ptr %5, align 8
  %47 = getelementptr inbounds nuw %struct._zgfx_context_t, ptr %46, i32 0, i32 4
  %48 = load ptr, ptr %5, align 8
  %49 = getelementptr inbounds nuw %struct._zgfx_context_t, ptr %48, i32 0, i32 3
  %50 = load i32, ptr %49, align 4
  %51 = zext i32 %50 to i64
  %52 = getelementptr [65536 x i8], ptr %47, i64 0, i64 %51
  store ptr %52, ptr %12, align 8
  %53 = load i32, ptr %10, align 4
  store i32 %53, ptr %11, align 4
  %54 = load i32, ptr %8, align 4
  %55 = load i32, ptr %11, align 4
  %56 = add i32 %54, %55
  %57 = load ptr, ptr %5, align 8
  %58 = getelementptr inbounds nuw %struct._zgfx_context_t, ptr %57, i32 0, i32 2
  %59 = load i32, ptr %58, align 4
  %60 = icmp ult i32 %56, %59
  br i1 %60, label %61, label %71

61:                                               ; preds = %44
  %62 = load ptr, ptr %12, align 8
  %63 = load ptr, ptr %5, align 8
  %64 = getelementptr inbounds nuw %struct._zgfx_context_t, ptr %63, i32 0, i32 0
  %65 = load i32, ptr %8, align 4
  %66 = zext i32 %65 to i64
  %67 = getelementptr [2500000 x i8], ptr %64, i64 0, i64 %66
  %68 = load i32, ptr %11, align 4
  %69 = zext i32 %68 to i64
  %70 = call ptr @memcpy.inline(ptr noundef %62, ptr noundef %67, i64 noundef %69) #8
  br label %98

71:                                               ; preds = %44
  call void @llvm.lifetime.start.p0(i64 4, ptr %14) #8
  %72 = load ptr, ptr %5, align 8
  %73 = getelementptr inbounds nuw %struct._zgfx_context_t, ptr %72, i32 0, i32 2
  %74 = load i32, ptr %73, align 4
  %75 = load i32, ptr %8, align 4
  %76 = sub i32 %74, %75
  store i32 %76, ptr %14, align 4
  %77 = load ptr, ptr %12, align 8
  %78 = load ptr, ptr %5, align 8
  %79 = getelementptr inbounds nuw %struct._zgfx_context_t, ptr %78, i32 0, i32 0
  %80 = load i32, ptr %8, align 4
  %81 = zext i32 %80 to i64
  %82 = getelementptr [2500000 x i8], ptr %79, i64 0, i64 %81
  %83 = load i32, ptr %14, align 4
  %84 = zext i32 %83 to i64
  %85 = call ptr @memcpy.inline(ptr noundef %77, ptr noundef %82, i64 noundef %84) #8
  %86 = load ptr, ptr %12, align 8
  %87 = load i32, ptr %14, align 4
  %88 = zext i32 %87 to i64
  %89 = getelementptr i8, ptr %86, i64 %88
  %90 = load ptr, ptr %5, align 8
  %91 = getelementptr inbounds nuw %struct._zgfx_context_t, ptr %90, i32 0, i32 0
  %92 = getelementptr inbounds [2500000 x i8], ptr %91, i64 0, i64 0
  %93 = load i32, ptr %11, align 4
  %94 = load i32, ptr %14, align 4
  %95 = sub i32 %93, %94
  %96 = zext i32 %95 to i64
  %97 = call ptr @memcpy.inline(ptr noundef %89, ptr noundef %92, i64 noundef %96) #8
  call void @llvm.lifetime.end.p0(i64 4, ptr %14) #8
  br label %98

98:                                               ; preds = %71, %61
  %99 = load i32, ptr %11, align 4
  %100 = load ptr, ptr %12, align 8
  %101 = zext i32 %99 to i64
  %102 = getelementptr i8, ptr %100, i64 %101
  store ptr %102, ptr %12, align 8
  %103 = load i32, ptr %11, align 4
  %104 = load i32, ptr %9, align 4
  %105 = sub i32 %104, %103
  store i32 %105, ptr %9, align 4
  br label %106

106:                                              ; preds = %117, %98
  %107 = load i32, ptr %9, align 4
  %108 = icmp ne i32 %107, 0
  br i1 %108, label %109, label %139

109:                                              ; preds = %106
  %110 = load i32, ptr %9, align 4
  %111 = load i32, ptr %10, align 4
  %112 = icmp ult i32 %110, %111
  br i1 %112, label %113, label %115

113:                                              ; preds = %109
  %114 = load i32, ptr %9, align 4
  br label %117

115:                                              ; preds = %109
  %116 = load i32, ptr %10, align 4
  br label %117

117:                                              ; preds = %115, %113
  %118 = phi i32 [ %114, %113 ], [ %116, %115 ]
  store i32 %118, ptr %11, align 4
  %119 = load ptr, ptr %12, align 8
  %120 = load ptr, ptr %5, align 8
  %121 = getelementptr inbounds nuw %struct._zgfx_context_t, ptr %120, i32 0, i32 4
  %122 = load ptr, ptr %5, align 8
  %123 = getelementptr inbounds nuw %struct._zgfx_context_t, ptr %122, i32 0, i32 3
  %124 = load i32, ptr %123, align 4
  %125 = zext i32 %124 to i64
  %126 = getelementptr [65536 x i8], ptr %121, i64 0, i64 %125
  %127 = load i32, ptr %11, align 4
  %128 = zext i32 %127 to i64
  %129 = call ptr @memcpy.inline(ptr noundef %119, ptr noundef %126, i64 noundef %128) #8
  %130 = load i32, ptr %11, align 4
  %131 = load ptr, ptr %12, align 8
  %132 = zext i32 %130 to i64
  %133 = getelementptr i8, ptr %131, i64 %132
  store ptr %133, ptr %12, align 8
  %134 = load i32, ptr %11, align 4
  %135 = load i32, ptr %9, align 4
  %136 = sub i32 %135, %134
  store i32 %136, ptr %9, align 4
  %137 = load i32, ptr %10, align 4
  %138 = mul i32 %137, 2
  store i32 %138, ptr %10, align 4
  br label %106, !llvm.loop !14

139:                                              ; preds = %106
  %140 = load ptr, ptr %5, align 8
  %141 = load ptr, ptr %5, align 8
  %142 = getelementptr inbounds nuw %struct._zgfx_context_t, ptr %141, i32 0, i32 4
  %143 = load ptr, ptr %5, align 8
  %144 = getelementptr inbounds nuw %struct._zgfx_context_t, ptr %143, i32 0, i32 3
  %145 = load i32, ptr %144, align 4
  %146 = zext i32 %145 to i64
  %147 = getelementptr [65536 x i8], ptr %142, i64 0, i64 %146
  %148 = load i32, ptr %7, align 4
  call void @zgfx_write_history_buffer(ptr noundef %140, ptr noundef %147, i32 noundef %148)
  %149 = load i32, ptr %7, align 4
  %150 = load ptr, ptr %5, align 8
  %151 = getelementptr inbounds nuw %struct._zgfx_context_t, ptr %150, i32 0, i32 3
  %152 = load i32, ptr %151, align 4
  %153 = add i32 %152, %149
  store i32 %153, ptr %151, align 4
  store i1 true, ptr %4, align 1
  store i32 1, ptr %13, align 4
  br label %154

154:                                              ; preds = %139, %21
  call void @llvm.lifetime.end.p0(i64 8, ptr %12) #8
  call void @llvm.lifetime.end.p0(i64 4, ptr %11) #8
  call void @llvm.lifetime.end.p0(i64 4, ptr %10) #8
  call void @llvm.lifetime.end.p0(i64 4, ptr %9) #8
  call void @llvm.lifetime.end.p0(i64 4, ptr %8) #8
  %155 = load i1, ptr %4, align 1
  ret i1 %155
}