; Function Attrs: nofree nounwind null_pointer_is_valid sspstrong memory(argmem: readwrite) uwtable
define internal fastcc noundef zeroext i1 @zgfx_write_from_history(ptr noundef %0, i32 noundef range(i32 1, 0) %1, i32 noundef %2) unnamed_addr #4 {
  %4 = getelementptr inbounds nuw i8, ptr %0, i64 2500008
  %5 = load i32, ptr %4, align 4
  %6 = sub i32 65535, %2
  %7 = icmp ule i32 %5, %6
  br i1 %7, label %8, label %76

8:                                                ; preds = %3
  %9 = getelementptr inbounds nuw i8, ptr %0, i64 2500000
  %10 = load i32, ptr %9, align 4
  %11 = getelementptr inbounds nuw i8, ptr %0, i64 2500004
  %12 = load i32, ptr %11, align 4
  %13 = sub i32 %10, %1
  %14 = add i32 %13, %12
  %15 = urem i32 %14, %12
  %16 = tail call i32 @llvm.umin.i32(i32 %1, i32 %2)
  %17 = getelementptr inbounds nuw i8, ptr %0, i64 2500012
  %18 = zext i32 %5 to i64
  %19 = getelementptr [65536 x i8], ptr %17, i64 0, i64 %18
  %20 = add i32 %15, %16
  %21 = icmp ult i32 %20, %12
  br i1 %21, label %22, label %26

22:                                               ; preds = %8
  %23 = zext i32 %15 to i64
  %24 = getelementptr [2500000 x i8], ptr %0, i64 0, i64 %23
  %25 = zext i32 %16 to i64
  tail call void @llvm.memcpy.p0.p0.i64(ptr noundef align 1 %19, ptr noundef align 1 %24, i64 noundef range(i64 0, 4294967296) %25, i1 noundef false) #9
  br label %34

26:                                               ; preds = %8
  %27 = sub i32 %12, %15
  %28 = zext i32 %15 to i64
  %29 = getelementptr [2500000 x i8], ptr %0, i64 0, i64 %28
  %30 = zext i32 %27 to i64
  tail call void @llvm.memcpy.p0.p0.i64(ptr noundef align 1 %19, ptr noundef align 1 %29, i64 noundef range(i64 0, 4294967296) %30, i1 noundef false) #9
  %31 = getelementptr i8, ptr %19, i64 %30
  %32 = sub i32 %16, %27
  %33 = zext i32 %32 to i64
  tail call void @llvm.memcpy.p0.p0.i64(ptr noundef align 1 %31, ptr noundef align 1 %0, i64 noundef range(i64 0, 4294967296) %33, i1 noundef false) #9
  %.pre = zext i32 %16 to i64
  br label %34

34:                                               ; preds = %26, %22
  %.pre-phi = phi i64 [ %.pre, %26 ], [ %25, %22 ]
  %35 = sub i32 %2, %16
  %.not62 = icmp eq i32 %35, 0
  br i1 %.not62, label %._crit_edge, label %.lr.ph.preheader

.lr.ph.preheader:                                 ; preds = %34
  %36 = getelementptr i8, ptr %19, i64 %.pre-phi
  br label %.lr.ph

.lr.ph:                                           ; preds = %.lr.ph.preheader, %.lr.ph
  %.05665 = phi ptr [ %42, %.lr.ph ], [ %36, %.lr.ph.preheader ]
  %.05764 = phi i32 [ %44, %.lr.ph ], [ %16, %.lr.ph.preheader ]
  %.05863 = phi i32 [ %43, %.lr.ph ], [ %35, %.lr.ph.preheader ]
  %37 = tail call i32 @llvm.umin.i32(i32 %.05863, i32 %.05764)
  %38 = load i32, ptr %4, align 4
  %39 = zext i32 %38 to i64
  %40 = getelementptr [65536 x i8], ptr %17, i64 0, i64 %39
  %41 = zext i32 %37 to i64
  tail call void @llvm.memcpy.p0.p0.i64(ptr noundef align 1 %.05665, ptr noundef align 1 %40, i64 noundef range(i64 0, 4294967296) %41, i1 noundef false) #9
  %42 = getelementptr i8, ptr %.05665, i64 %41
  %43 = sub i32 %.05863, %37
  %44 = shl i32 %.05764, 1
  %.not = icmp eq i32 %43, 0
  br i1 %.not, label %._crit_edge, label %.lr.ph, !llvm.loop !22

._crit_edge:                                      ; preds = %.lr.ph, %34
  %45 = load i32, ptr %4, align 4
  %46 = zext i32 %45 to i64
  %47 = getelementptr [65536 x i8], ptr %17, i64 0, i64 %46
  %48 = load i32, ptr %11, align 4
  %49 = icmp ugt i32 %2, %48
  br i1 %49, label %50, label %._crit_edge.i

._crit_edge.i:                                    ; preds = %._crit_edge
  %.pre.i = load i32, ptr %9, align 4
  br label %55

50:                                               ; preds = %._crit_edge
  %51 = sub nuw i32 %2, %48
  %52 = load i32, ptr %9, align 4
  %53 = add i32 %51, %52
  %54 = urem i32 %53, %48
  store i32 %54, ptr %9, align 4
  br label %55

55:                                               ; preds = %50, %._crit_edge.i
  %56 = phi i32 [ %54, %50 ], [ %.pre.i, %._crit_edge.i ]
  %.0.i = phi i32 [ %48, %50 ], [ %2, %._crit_edge.i ]
  %57 = add i32 %.0.i, %56
  %.not.i = icmp ugt i32 %57, %48
  br i1 %.not.i, label %62, label %58

58:                                               ; preds = %55
  %59 = zext i32 %56 to i64
  %60 = getelementptr [2500000 x i8], ptr %0, i64 0, i64 %59
  %61 = zext i32 %.0.i to i64
  tail call void @llvm.memcpy.p0.p0.i64(ptr noundef align 1 %60, ptr noundef readonly align 1 %47, i64 noundef range(i64 0, 4294967296) %61, i1 noundef false) #9
  br label %zgfx_write_history_buffer.exit

62:                                               ; preds = %55
  %63 = sub i32 %48, %56
  %64 = zext i32 %56 to i64
  %65 = getelementptr [2500000 x i8], ptr %0, i64 0, i64 %64
  %66 = zext i32 %63 to i64
  tail call void @llvm.memcpy.p0.p0.i64(ptr noundef align 1 %65, ptr noundef readonly align 1 %47, i64 noundef range(i64 0, 4294967296) %66, i1 noundef false) #9
  %67 = getelementptr i8, ptr %47, i64 %66
  %68 = sub i32 %.0.i, %63
  %69 = zext i32 %68 to i64
  tail call void @llvm.memcpy.p0.p0.i64(ptr noundef align 1 %0, ptr noundef readonly align 1 %67, i64 noundef range(i64 0, 4294967296) %69, i1 noundef false) #9
  br label %zgfx_write_history_buffer.exit

zgfx_write_history_buffer.exit:                   ; preds = %58, %62
  %70 = load i32, ptr %9, align 4
  %71 = add i32 %70, %.0.i
  %72 = load i32, ptr %11, align 4
  %73 = urem i32 %71, %72
  store i32 %73, ptr %9, align 4
  %74 = load i32, ptr %4, align 4
  %75 = add i32 %74, %2
  store i32 %75, ptr %4, align 4
  br label %76

76:                                               ; preds = %3, %zgfx_write_history_buffer.exit
  ret i1 %7
}